target datalayout = "e-m:e-p270:32:32-p271:32:32-p272:64:64-i64:64-i128:128-f80:128-n8:16:32:64-S128"
target triple = "x86_64-pc-linux-gnu"

%struct.ident_t = type { i32, i32, i32, i32, ptr }

@2 = private unnamed_addr constant %struct.ident_t { i32 0, i32 514, i32 0, i32 22, ptr @0 }, align 8

; Function Attrs: norecurse nounwind uwtable
define internal void @_ZN5faiss29hashtable_int64_to_int64_initEiPl.omp_outlined(ptr noalias noundef %0, ptr noalias noundef %1, ptr noundef nonnull align 8 dereferenceable(8) %2, ptr noundef nonnull align 8 dereferenceable(8) %3) #6 {
  %5 = alloca ptr, align 8
  %6 = alloca ptr, align 8
  %7 = alloca ptr, align 8
  %8 = alloca ptr, align 8
  %9 = alloca i64, align 8
  %10 = alloca i64, align 8
  %11 = alloca i64, align 8
  %12 = alloca i64, align 8
  %13 = alloca i64, align 8
  %14 = alloca i64, align 8
  %15 = alloca i64, align 8
  %16 = alloca i32, align 4
  %17 = alloca i64, align 8
  store ptr %0, ptr %5, align 8
  store ptr %1, ptr %6, align 8
  store ptr %2, ptr %7, align 8
  store ptr %3, ptr %8, align 8
  %18 = load ptr, ptr %7, align 8
  %19 = load ptr, ptr %8, align 8
  %20 = load i64, ptr %18, align 8
  store i64 %20, ptr %10, align 8
  %21 = load i64, ptr %10, align 8
  %22 = sub i64 %21, 0
  %23 = udiv i64 %22, 1
  %24 = sub i64 %23, 1
  store i64 %24, ptr %11, align 8
  store i64 0, ptr %12, align 8
  %25 = load i64, ptr %10, align 8
  %26 = icmp ult i64 0, %25
  br i1 %26, label %27, label %67

27:                                               ; preds = %4
  store i64 0, ptr %13, align 8
  %28 = load i64, ptr %11, align 8
  store i64 %28, ptr %14, align 8
  store i64 1, ptr %15, align 8
  store i32 0, ptr %16, align 4
  %29 = load ptr, ptr %5, align 8
  %30 = load i32, ptr %29, align 4
  call void @__kmpc_for_static_init_8u(ptr @2, i32 %30, i32 34, ptr %16, ptr %13, ptr %14, ptr %15, i64 1, i64 1)
  %31 = load i64, ptr %14, align 8
  %32 = load i64, ptr %11, align 8
  %33 = icmp ugt i64 %31, %32
  br i1 %33, label %34, label %36

34:                                               ; preds = %27
  %35 = load i64, ptr %11, align 8
  br label %38

36:                                               ; preds = %27
  %37 = load i64, ptr %14, align 8
  br label %38

38:                                               ; preds = %36, %34
  %39 = phi i64 [ %35, %34 ], [ %37, %36 ]
  store i64 %39, ptr %14, align 8
  %40 = load i64, ptr %13, align 8
  store i64 %40, ptr %9, align 8
  br label %41

41:                                               ; preds = %60, %38
  %42 = load i64, ptr %9, align 8
  %43 = load i64, ptr %14, align 8
  %44 = add i64 %43, 1
  %45 = icmp ult i64 %42, %44
  br i1 %45, label %46, label %63

46:                                               ; preds = %41
  %47 = load i64, ptr %9, align 8
  %48 = mul i64 %47, 1
  %49 = add i64 0, %48
  store i64 %49, ptr %17, align 8
  %50 = load ptr, ptr %19, align 8
  %51 = load i64, ptr %17, align 8
  %52 = mul nsw i64 2, %51
  %53 = getelementptr inbounds i64, ptr %50, i64 %52
  store i64 -1, ptr %53, align 8
  %54 = load ptr, ptr %19, align 8
  %55 = load i64, ptr %17, align 8
  %56 = mul nsw i64 2, %55
  %57 = add nsw i64 %56, 1
  %58 = getelementptr inbounds i64, ptr %54, i64 %57
  store i64 -1, ptr %58, align 8
  br label %59

59:                                               ; preds = %46
  br label %60

60:                                               ; preds = %59
  %61 = load i64, ptr %9, align 8
  %62 = add i64 %61, 1
  store i64 %62, ptr %9, align 8
  br label %41

63:                                               ; preds = %41
  br label %64

64:                                               ; preds = %63
  %65 = load ptr, ptr %5, align 8
  %66 = load i32, ptr %65, align 4
  call void @__kmpc_for_static_fini(ptr @2, i32 %66)
  br label %67

67:                                               ; preds = %64, %4
  ret void
}