; Function Attrs: norecurse nounwind uwtable
define internal void @_ZN5faiss29hashtable_int64_to_int64_initEiPl.omp_outlined(ptr noalias nocapture noundef readonly %0, ptr noalias nocapture readnone %1, ptr nocapture noundef nonnull readonly align 8 dereferenceable(8) %2, ptr nocapture noundef nonnull readonly align 8 dereferenceable(8) %3) #8 {
  %5 = alloca i64, align 8
  %6 = alloca i64, align 8
  %7 = alloca i64, align 8
  %8 = alloca i32, align 4
  %9 = load i64, ptr %2, align 8
  %.not = icmp eq i64 %9, 0
  br i1 %.not, label %26, label %10

10:                                               ; preds = %4
  %11 = add i64 %9, -1
  store i64 0, ptr %5, align 8
  store i64 %11, ptr %6, align 8
  store i64 1, ptr %7, align 8
  store i32 0, ptr %8, align 4
  %12 = load i32, ptr %0, align 4
  call void @__kmpc_for_static_init_8u(ptr nonnull @2, i32 %12, i32 34, ptr nonnull %8, ptr nonnull %5, ptr nonnull %6, ptr nonnull %7, i64 1, i64 1)
  %13 = load i64, ptr %6, align 8
  %14 = call i64 @llvm.umin.i64(i64 %13, i64 %11)
  store i64 %14, ptr %6, align 8
  %15 = load i64, ptr %5, align 8
  %.not14 = icmp ugt i64 %15, %14
  br i1 %.not14, label %._crit_edge, label %.lr.ph

.lr.ph:                                           ; preds = %10, %.lr.ph
  %.013 = phi i64 [ %22, %.lr.ph ], [ %15, %10 ]
  %16 = load ptr, ptr %3, align 8
  %17 = shl nsw i64 %.013, 1
  %18 = getelementptr inbounds i64, ptr %16, i64 %17
  store i64 -1, ptr %18, align 8
  %19 = load ptr, ptr %3, align 8
  %20 = or disjoint i64 %17, 1
  %21 = getelementptr inbounds i64, ptr %19, i64 %20
  store i64 -1, ptr %21, align 8
  %22 = add nuw i64 %.013, 1
  %23 = load i64, ptr %6, align 8
  %24 = add i64 %23, 1
  %25 = icmp ult i64 %22, %24
  br i1 %25, label %.lr.ph, label %._crit_edge

._crit_edge:                                      ; preds = %.lr.ph, %10
  call void @__kmpc_for_static_fini(ptr nonnull @2, i32 %12)
  br label %26

26:                                               ; preds = %._crit_edge, %4
  ret void
}